target datalayout = "e-m:e-p270:32:32-p271:32:32-p272:64:64-i64:64-i128:128-f80:128-n8:16:32:64-S128"
target triple = "x86_64-pc-linux-gnu"

%class.Register = type { i32 }
%class.XMMRegister = type { i32 }
%class.KRegister = type { i32 }
%class.Address = type { %class.Register, %class.Register, %class.XMMRegister, i32, i32, i8, [3 x i8], %class.RelocationHolder }
%class.RelocationHolder = type { [40 x i8] }

@g_assert_poison = external global ptr, align 8
@.str = private unnamed_addr constant [43 x i8] c"src/hotspot/cpu/x86/macroAssembler_x86.cpp\00", align 1
@.str.41 = private unnamed_addr constant [28 x i8] c"Unexpected type argument %s\00", align 1

; Function Attrs: mustprogress nounwind uwtable
define linkonce_odr hidden noundef ptr @_ZNK16RelocationHolder5relocEv(ptr noundef nonnull align 8 dereferenceable(40) %0) #1 comdat align 2 {
  %2 = alloca ptr, align 8
  store ptr %0, ptr %2, align 8
  %3 = load ptr, ptr %2, align 8
  %4 = getelementptr inbounds %class.RelocationHolder, ptr %3, i32 0, i32 0
  %5 = getelementptr inbounds [40 x i8], ptr %4, i64 0, i64 0
  ret ptr %5
}

; Function Attrs: mustprogress nounwind uwtable
define linkonce_odr hidden void @_ZN16RelocationHolderC2ERKS_(ptr noundef nonnull align 8 dereferenceable(40) %0, ptr noundef nonnull align 8 dereferenceable(40) %1) unnamed_addr #1 comdat align 2 {
  %3 = alloca ptr, align 8
  %4 = alloca ptr, align 8
  store ptr %0, ptr %3, align 8
  store ptr %1, ptr %4, align 8
  %5 = load ptr, ptr %3, align 8
  %6 = load ptr, ptr %4, align 8
  %7 = call noundef ptr @_ZNK16RelocationHolder5relocEv(ptr noundef nonnull align 8 dereferenceable(40) %6)
  %8 = load ptr, ptr %7, align 8
  %9 = getelementptr inbounds ptr, ptr %8, i64 2
  %10 = load ptr, ptr %9, align 8
  call void %10(ptr noundef nonnull align 8 dereferenceable(20) %7, ptr noundef nonnull align 8 dereferenceable(40) %5)
  ret void
}

; Function Attrs: mustprogress nounwind uwtable
define linkonce_odr hidden void @_ZN7AddressC2ERKS_(ptr noundef nonnull align 8 dereferenceable(64) %0, ptr noundef nonnull align 8 dereferenceable(64) %1) unnamed_addr #1 comdat align 2 {
  %3 = alloca ptr, align 8
  %4 = alloca ptr, align 8
  store ptr %0, ptr %3, align 8
  store ptr %1, ptr %4, align 8
  %5 = load ptr, ptr %3, align 8
  %6 = getelementptr inbounds %class.Address, ptr %5, i32 0, i32 0
  %7 = load ptr, ptr %4, align 8
  %8 = getelementptr inbounds %class.Address, ptr %7, i32 0, i32 0
  call void @llvm.memcpy.p0.p0.i64(ptr align 8 %6, ptr align 8 %8, i64 21, i1 false)
  %9 = getelementptr inbounds %class.Address, ptr %5, i32 0, i32 7
  %10 = load ptr, ptr %4, align 8
  %11 = getelementptr inbounds %class.Address, ptr %10, i32 0, i32 7
  call void @_ZN16RelocationHolderC2ERKS_(ptr noundef nonnull align 8 dereferenceable(40) %9, ptr noundef nonnull align 8 dereferenceable(40) %11)
  ret void
}

; Function Attrs: mustprogress nounwind uwtable
define hidden void @_ZN14MacroAssembler7evpminsE9BasicType11XMMRegister9KRegisterS1_7Addressbi(ptr noundef nonnull align 8 dereferenceable(40) %0, i8 noundef zeroext %1, i32 %2, i32 %3, i32 %4, ptr noundef %5, i1 noundef zeroext %6, i32 noundef %7) #1 align 2 {
  %9 = alloca %class.XMMRegister, align 4
  %10 = alloca %class.KRegister, align 4
  %11 = alloca %class.XMMRegister, align 4
  %12 = alloca ptr, align 8
  %13 = alloca i8, align 1
  %14 = alloca ptr, align 8
  %15 = alloca i8, align 1
  %16 = alloca i32, align 4
  %17 = alloca %class.XMMRegister, align 4
  %18 = alloca %class.KRegister, align 4
  %19 = alloca %class.XMMRegister, align 4
  %20 = alloca %class.Address, align 8
  %21 = alloca %class.XMMRegister, align 4
  %22 = alloca %class.KRegister, align 4
  %23 = alloca %class.XMMRegister, align 4
  %24 = alloca %class.Address, align 8
  %25 = alloca %class.XMMRegister, align 4
  %26 = alloca %class.KRegister, align 4
  %27 = alloca %class.XMMRegister, align 4
  %28 = alloca %class.Address, align 8
  %29 = alloca %class.XMMRegister, align 4
  %30 = alloca %class.KRegister, align 4
  %31 = alloca %class.XMMRegister, align 4
  %32 = alloca %class.Address, align 8
  %33 = getelementptr inbounds %class.XMMRegister, ptr %9, i32 0, i32 0
  store i32 %2, ptr %33, align 4
  %34 = getelementptr inbounds %class.KRegister, ptr %10, i32 0, i32 0
  store i32 %3, ptr %34, align 4
  %35 = getelementptr inbounds %class.XMMRegister, ptr %11, i32 0, i32 0
  store i32 %4, ptr %35, align 4
  store ptr %0, ptr %12, align 8
  store i8 %1, ptr %13, align 1
  store ptr %5, ptr %14, align 8
  %36 = zext i1 %6 to i8
  store i8 %36, ptr %15, align 1
  store i32 %7, ptr %16, align 4
  %37 = load ptr, ptr %12, align 8
  %38 = load i8, ptr %13, align 1
  %39 = zext i8 %38 to i32
  switch i32 %39, label %80 [
    i32 8, label %40
    i32 9, label %50
    i32 10, label %60
    i32 11, label %70
  ]

40:                                               ; preds = %8
  call void @llvm.memcpy.p0.p0.i64(ptr align 4 %17, ptr align 4 %9, i64 4, i1 false)
  call void @llvm.memcpy.p0.p0.i64(ptr align 4 %18, ptr align 4 %10, i64 4, i1 false)
  call void @llvm.memcpy.p0.p0.i64(ptr align 4 %19, ptr align 4 %11, i64 4, i1 false)
  call void @_ZN7AddressC2ERKS_(ptr noundef nonnull align 8 dereferenceable(64) %20, ptr noundef nonnull align 8 dereferenceable(64) %5)
  %41 = load i8, ptr %15, align 1
  %42 = trunc i8 %41 to i1
  %43 = load i32, ptr %16, align 4
  %44 = getelementptr inbounds %class.XMMRegister, ptr %17, i32 0, i32 0
  %45 = load i32, ptr %44, align 4
  %46 = getelementptr inbounds %class.KRegister, ptr %18, i32 0, i32 0
  %47 = load i32, ptr %46, align 4
  %48 = getelementptr inbounds %class.XMMRegister, ptr %19, i32 0, i32 0
  %49 = load i32, ptr %48, align 4
  call void @_ZN9Assembler8evpminsbE11XMMRegister9KRegisterS0_7Addressbi(ptr noundef nonnull align 8 dereferenceable(40) %37, i32 %45, i32 %47, i32 %49, ptr noundef %20, i1 noundef zeroext %42, i32 noundef %43)
  br label %86

50:                                               ; preds = %8
  call void @llvm.memcpy.p0.p0.i64(ptr align 4 %21, ptr align 4 %9, i64 4, i1 false)
  call void @llvm.memcpy.p0.p0.i64(ptr align 4 %22, ptr align 4 %10, i64 4, i1 false)
  call void @llvm.memcpy.p0.p0.i64(ptr align 4 %23, ptr align 4 %11, i64 4, i1 false)
  call void @_ZN7AddressC2ERKS_(ptr noundef nonnull align 8 dereferenceable(64) %24, ptr noundef nonnull align 8 dereferenceable(64) %5)
  %51 = load i8, ptr %15, align 1
  %52 = trunc i8 %51 to i1
  %53 = load i32, ptr %16, align 4
  %54 = getelementptr inbounds %class.XMMRegister, ptr %21, i32 0, i32 0
  %55 = load i32, ptr %54, align 4
  %56 = getelementptr inbounds %class.KRegister, ptr %22, i32 0, i32 0
  %57 = load i32, ptr %56, align 4
  %58 = getelementptr inbounds %class.XMMRegister, ptr %23, i32 0, i32 0
  %59 = load i32, ptr %58, align 4
  call void @_ZN9Assembler8evpminswE11XMMRegister9KRegisterS0_7Addressbi(ptr noundef nonnull align 8 dereferenceable(40) %37, i32 %55, i32 %57, i32 %59, ptr noundef %24, i1 noundef zeroext %52, i32 noundef %53)
  br label %86

60:                                               ; preds = %8
  call void @llvm.memcpy.p0.p0.i64(ptr align 4 %25, ptr align 4 %9, i64 4, i1 false)
  call void @llvm.memcpy.p0.p0.i64(ptr align 4 %26, ptr align 4 %10, i64 4, i1 false)
  call void @llvm.memcpy.p0.p0.i64(ptr align 4 %27, ptr align 4 %11, i64 4, i1 false)
  call void @_ZN7AddressC2ERKS_(ptr noundef nonnull align 8 dereferenceable(64) %28, ptr noundef nonnull align 8 dereferenceable(64) %5)
  %61 = load i8, ptr %15, align 1
  %62 = trunc i8 %61 to i1
  %63 = load i32, ptr %16, align 4
  %64 = getelementptr inbounds %class.XMMRegister, ptr %25, i32 0, i32 0
  %65 = load i32, ptr %64, align 4
  %66 = getelementptr inbounds %class.KRegister, ptr %26, i32 0, i32 0
  %67 = load i32, ptr %66, align 4
  %68 = getelementptr inbounds %class.XMMRegister, ptr %27, i32 0, i32 0
  %69 = load i32, ptr %68, align 4
  call void @_ZN9Assembler8evpminsdE11XMMRegister9KRegisterS0_7Addressbi(ptr noundef nonnull align 8 dereferenceable(40) %37, i32 %65, i32 %67, i32 %69, ptr noundef %28, i1 noundef zeroext %62, i32 noundef %63)
  br label %86

70:                                               ; preds = %8
  call void @llvm.memcpy.p0.p0.i64(ptr align 4 %29, ptr align 4 %9, i64 4, i1 false)
  call void @llvm.memcpy.p0.p0.i64(ptr align 4 %30, ptr align 4 %10, i64 4, i1 false)
  call void @llvm.memcpy.p0.p0.i64(ptr align 4 %31, ptr align 4 %11, i64 4, i1 false)
  call void @_ZN7AddressC2ERKS_(ptr noundef nonnull align 8 dereferenceable(64) %32, ptr noundef nonnull align 8 dereferenceable(64) %5)
  %71 = load i8, ptr %15, align 1
  %72 = trunc i8 %71 to i1
  %73 = load i32, ptr %16, align 4
  %74 = getelementptr inbounds %class.XMMRegister, ptr %29, i32 0, i32 0
  %75 = load i32, ptr %74, align 4
  %76 = getelementptr inbounds %class.KRegister, ptr %30, i32 0, i32 0
  %77 = load i32, ptr %76, align 4
  %78 = getelementptr inbounds %class.XMMRegister, ptr %31, i32 0, i32 0
  %79 = load i32, ptr %78, align 4
  call void @_ZN9Assembler8evpminsqE11XMMRegister9KRegisterS0_7Addressbi(ptr noundef nonnull align 8 dereferenceable(40) %37, i32 %75, i32 %77, i32 %79, ptr noundef %32, i1 noundef zeroext %72, i32 noundef %73)
  br label %86

80:                                               ; preds = %8
  br label %81

81:                                               ; preds = %80
  %82 = load ptr, ptr @g_assert_poison, align 8
  store i8 88, ptr %82, align 1
  %83 = load i8, ptr %13, align 1
  %84 = call noundef ptr @_Z9type2name9BasicType(i8 noundef zeroext %83)
  call void (i32, ptr, i32, ptr, ...) @_Z12report_fatal11VMErrorTypePKciS1_z(i32 noundef -536870912, ptr noundef @.str, i32 noundef 9508, ptr noundef @.str.41, ptr noundef %84) #8
  unreachable

85:                                               ; No predecessors!
  br label %86

86:                                               ; preds = %85, %70, %60, %50, %40
  ret void
}