; Function Attrs: mustprogress nounwind uwtable
define hidden void @_ZN14MacroAssembler7evpminsE9BasicType11XMMRegister9KRegisterS1_7Addressbi(ptr noundef nonnull align 8 dereferenceable(40) %0, i8 noundef zeroext %1, i32 %2, i32 %3, i32 %4, ptr noundef %5, i1 noundef zeroext %6, i32 noundef %7) local_unnamed_addr #0 align 2 {
  %9 = alloca %class.Address, align 8
  %10 = alloca %class.Address, align 8
  %11 = alloca %class.Address, align 8
  %12 = alloca %class.Address, align 8
  switch i8 %1, label %37 [
    i8 8, label %13
    i8 9, label %19
    i8 10, label %25
    i8 11, label %31
  ]

13:                                               ; preds = %8
  call void @llvm.memcpy.p0.p0.i64(ptr noundef nonnull align 8 dereferenceable(21) %9, ptr noundef nonnull align 8 dereferenceable(21) %5, i64 21, i1 false)
  %14 = getelementptr inbounds i8, ptr %9, i64 24
  %15 = getelementptr inbounds i8, ptr %5, i64 24
  %16 = load ptr, ptr %15, align 8
  %17 = getelementptr inbounds i8, ptr %16, i64 16
  %18 = load ptr, ptr %17, align 8
  call void %18(ptr noundef nonnull align 8 dereferenceable(20) %15, ptr noundef nonnull align 8 dereferenceable(40) %14) #18
  call void @_ZN9Assembler8evpminsbE11XMMRegister9KRegisterS0_7Addressbi(ptr noundef nonnull align 8 dereferenceable(40) %0, i32 %2, i32 %3, i32 %4, ptr noundef nonnull %9, i1 noundef zeroext %6, i32 noundef %7) #18
  br label %40

19:                                               ; preds = %8
  call void @llvm.memcpy.p0.p0.i64(ptr noundef nonnull align 8 dereferenceable(21) %10, ptr noundef nonnull align 8 dereferenceable(21) %5, i64 21, i1 false)
  %20 = getelementptr inbounds i8, ptr %10, i64 24
  %21 = getelementptr inbounds i8, ptr %5, i64 24
  %22 = load ptr, ptr %21, align 8
  %23 = getelementptr inbounds i8, ptr %22, i64 16
  %24 = load ptr, ptr %23, align 8
  call void %24(ptr noundef nonnull align 8 dereferenceable(20) %21, ptr noundef nonnull align 8 dereferenceable(40) %20) #18
  call void @_ZN9Assembler8evpminswE11XMMRegister9KRegisterS0_7Addressbi(ptr noundef nonnull align 8 dereferenceable(40) %0, i32 %2, i32 %3, i32 %4, ptr noundef nonnull %10, i1 noundef zeroext %6, i32 noundef %7) #18
  br label %40

25:                                               ; preds = %8
  call void @llvm.memcpy.p0.p0.i64(ptr noundef nonnull align 8 dereferenceable(21) %11, ptr noundef nonnull align 8 dereferenceable(21) %5, i64 21, i1 false)
  %26 = getelementptr inbounds i8, ptr %11, i64 24
  %27 = getelementptr inbounds i8, ptr %5, i64 24
  %28 = load ptr, ptr %27, align 8
  %29 = getelementptr inbounds i8, ptr %28, i64 16
  %30 = load ptr, ptr %29, align 8
  call void %30(ptr noundef nonnull align 8 dereferenceable(20) %27, ptr noundef nonnull align 8 dereferenceable(40) %26) #18
  call void @_ZN9Assembler8evpminsdE11XMMRegister9KRegisterS0_7Addressbi(ptr noundef nonnull align 8 dereferenceable(40) %0, i32 %2, i32 %3, i32 %4, ptr noundef nonnull %11, i1 noundef zeroext %6, i32 noundef %7) #18
  br label %40

31:                                               ; preds = %8
  call void @llvm.memcpy.p0.p0.i64(ptr noundef nonnull align 8 dereferenceable(21) %12, ptr noundef nonnull align 8 dereferenceable(21) %5, i64 21, i1 false)
  %32 = getelementptr inbounds i8, ptr %12, i64 24
  %33 = getelementptr inbounds i8, ptr %5, i64 24
  %34 = load ptr, ptr %33, align 8
  %35 = getelementptr inbounds i8, ptr %34, i64 16
  %36 = load ptr, ptr %35, align 8
  call void %36(ptr noundef nonnull align 8 dereferenceable(20) %33, ptr noundef nonnull align 8 dereferenceable(40) %32) #18
  call void @_ZN9Assembler8evpminsqE11XMMRegister9KRegisterS0_7Addressbi(ptr noundef nonnull align 8 dereferenceable(40) %0, i32 %2, i32 %3, i32 %4, ptr noundef nonnull %12, i1 noundef zeroext %6, i32 noundef %7) #18
  br label %40

37:                                               ; preds = %8
  %38 = load ptr, ptr @g_assert_poison, align 8
  store i8 88, ptr %38, align 1
  %39 = tail call noundef ptr @_Z9type2name9BasicType(i8 noundef zeroext %1) #18
  tail call void (i32, ptr, i32, ptr, ...) @_Z12report_fatal11VMErrorTypePKciS1_z(i32 noundef -536870912, ptr noundef nonnull @.str, i32 noundef 9508, ptr noundef nonnull @.str.41, ptr noundef %39) #19
  unreachable

40:                                               ; preds = %31, %25, %19, %13
  ret void
}